; Function Attrs: mustprogress nofree norecurse nosync nounwind willreturn memory(none) uwtable
define noundef zeroext i1 @_ZNK10open_spiel8efg_game7EFGGame12IsWhiteSpaceEc(ptr noundef nonnull readnone align 8 captures(none) dereferenceable(720) %0, i8 noundef signext %1) local_unnamed_addr #13 align 2 {
switch.edge:
  %2 = icmp ult i8 %1, 33
  %switch.cast = zext nneg i8 %1 to i33
  %switch.downshift = lshr i33 -4294958080, %switch.cast
  %switch.masked = trunc i33 %switch.downshift to i1
  %3 = select i1 %2, i1 %switch.masked, i1 false
  ret i1 %3
}